; ModuleID = '28/1737.c'
source_filename = "28/1737.c"
target datalayout = "e-m:e-p270:32:32-p271:32:32-p272:64:64-i64:64-f80:128-n8:16:32:64-S128"
target triple = "x86_64-pc-linux-gnu"

@.str = private unnamed_addr constant [3 x i8] c"%d\00", align 1
@.str.1 = private unnamed_addr constant [4 x i8] c"%d,\00", align 1

; Function Attrs: noinline nounwind uwtable
define dso_local i32 @main() #0 {
  %1 = alloca i32, align 4
  %2 = alloca i32, align 4
  %3 = alloca i32, align 4
  %4 = alloca i32, align 4
  %5 = alloca i32, align 4
  %6 = alloca i32, align 4
  %7 = alloca [1000 x i8], align 16
  %8 = alloca [300 x [50 x i8]], align 16
  store i32 0, i32* %1, align 4
  store i32 0, i32* %4, align 4
  store i32 1, i32* %5, align 4
  store i32 0, i32* %6, align 4
  %9 = getelementptr inbounds [1000 x i8], [1000 x i8]* %7, i64 0, i64 0
  %10 = call i32 (i8*, ...) bitcast (i32 (...)* @gets to i32 (i8*, ...)*)(i8* %9)
  %11 = getelementptr inbounds [1000 x i8], [1000 x i8]* %7, i64 0, i64 0
  %12 = call i64 @strlen(i8* %11) #3
  %13 = trunc i64 %12 to i32
  store i32 %13, i32* %3, align 4
  store i32 0, i32* %2, align 4
  br label %14

14:                                               ; preds = %69, %0
  %15 = load i32, i32* %2, align 4
  %16 = load i32, i32* %3, align 4
  %17 = icmp slt i32 %15, %16
  br i1 %17, label %18, label %72

18:                                               ; preds = %14
  %19 = load i32, i32* %2, align 4
  %20 = sext i32 %19 to i64
  %21 = getelementptr inbounds [1000 x i8], [1000 x i8]* %7, i64 0, i64 %20
  %22 = load i8, i8* %21, align 1
  %23 = sext i8 %22 to i32
  %24 = icmp ne i32 %23, 32
  br i1 %24, label %25, label %38

25:                                               ; preds = %18
  %26 = load i32, i32* %2, align 4
  %27 = sext i32 %26 to i64
  %28 = getelementptr inbounds [1000 x i8], [1000 x i8]* %7, i64 0, i64 %27
  %29 = load i8, i8* %28, align 1
  %30 = load i32, i32* %6, align 4
  %31 = sext i32 %30 to i64
  %32 = getelementptr inbounds [300 x [50 x i8]], [300 x [50 x i8]]* %8, i64 0, i64 %31
  %33 = load i32, i32* %4, align 4
  %34 = sext i32 %33 to i64
  %35 = getelementptr inbounds [50 x i8], [50 x i8]* %32, i64 0, i64 %34
  store i8 %29, i8* %35, align 1
  %36 = load i32, i32* %4, align 4
  %37 = add nsw i32 %36, 1
  store i32 %37, i32* %4, align 4
  br label %68

38:                                               ; preds = %18
  %39 = load i32, i32* %2, align 4
  %40 = sext i32 %39 to i64
  %41 = getelementptr inbounds [1000 x i8], [1000 x i8]* %7, i64 0, i64 %40
  %42 = load i8, i8* %41, align 1
  %43 = sext i8 %42 to i32
  %44 = icmp eq i32 %43, 32
  br i1 %44, label %45, label %64

45:                                               ; preds = %38
  %46 = load i32, i32* %2, align 4
  %47 = sub nsw i32 %46, 1
  %48 = sext i32 %47 to i64
  %49 = getelementptr inbounds [1000 x i8], [1000 x i8]* %7, i64 0, i64 %48
  %50 = load i8, i8* %49, align 1
  %51 = sext i8 %50 to i32
  %52 = icmp ne i32 %51, 32
  br i1 %52, label %53, label %64

53:                                               ; preds = %45
  %54 = load i32, i32* %6, align 4
  %55 = sext i32 %54 to i64
  %56 = getelementptr inbounds [300 x [50 x i8]], [300 x [50 x i8]]* %8, i64 0, i64 %55
  %57 = load i32, i32* %4, align 4
  %58 = sext i32 %57 to i64
  %59 = getelementptr inbounds [50 x i8], [50 x i8]* %56, i64 0, i64 %58
  store i8 0, i8* %59, align 1
  %60 = load i32, i32* %6, align 4
  %61 = add nsw i32 %60, 1
  store i32 %61, i32* %6, align 4
  store i32 0, i32* %4, align 4
  %62 = load i32, i32* %5, align 4
  %63 = add nsw i32 %62, 1
  store i32 %63, i32* %5, align 4
  br label %67

64:                                               ; preds = %45, %38
  %65 = load i32, i32* %6, align 4
  store i32 %65, i32* %6, align 4
  store i32 0, i32* %4, align 4
  %66 = load i32, i32* %5, align 4
  store i32 %66, i32* %5, align 4
  br label %67

67:                                               ; preds = %64, %53
  br label %68

68:                                               ; preds = %67, %25
  br label %69

69:                                               ; preds = %68
  %70 = load i32, i32* %2, align 4
  %71 = add nsw i32 %70, 1
  store i32 %71, i32* %2, align 4
  br label %14

72:                                               ; preds = %14
  %73 = load i32, i32* %6, align 4
  %74 = sext i32 %73 to i64
  %75 = getelementptr inbounds [300 x [50 x i8]], [300 x [50 x i8]]* %8, i64 0, i64 %74
  %76 = load i32, i32* %4, align 4
  %77 = sext i32 %76 to i64
  %78 = getelementptr inbounds [50 x i8], [50 x i8]* %75, i64 0, i64 %77
  store i8 0, i8* %78, align 1
  %79 = load i32, i32* %5, align 4
  %80 = icmp eq i32 %79, 1
  br i1 %80, label %81, label %86

81:                                               ; preds = %72
  %82 = getelementptr inbounds [300 x [50 x i8]], [300 x [50 x i8]]* %8, i64 0, i64 0
  %83 = getelementptr inbounds [50 x i8], [50 x i8]* %82, i64 0, i64 0
  %84 = call i64 @strlen(i8* %83) #3
  %85 = call i32 (i8*, ...) @printf(i8* getelementptr inbounds ([3 x i8], [3 x i8]* @.str, i64 0, i64 0), i64 %84)
  br label %110

86:                                               ; preds = %72
  store i32 0, i32* %2, align 4
  br label %87

87:                                               ; preds = %99, %86
  %88 = load i32, i32* %2, align 4
  %89 = load i32, i32* %5, align 4
  %90 = sub nsw i32 %89, 1
  %91 = icmp slt i32 %88, %90
  br i1 %91, label %92, label %102

92:                                               ; preds = %87
  %93 = load i32, i32* %2, align 4
  %94 = sext i32 %93 to i64
  %95 = getelementptr inbounds [300 x [50 x i8]], [300 x [50 x i8]]* %8, i64 0, i64 %94
  %96 = getelementptr inbounds [50 x i8], [50 x i8]* %95, i64 0, i64 0
  %97 = call i64 @strlen(i8* %96) #3
  %98 = call i32 (i8*, ...) @printf(i8* getelementptr inbounds ([4 x i8], [4 x i8]* @.str.1, i64 0, i64 0), i64 %97)
  br label %99

99:                                               ; preds = %92
  %100 = load i32, i32* %2, align 4
  %101 = add nsw i32 %100, 1
  store i32 %101, i32* %2, align 4
  br label %87

102:                                              ; preds = %87
  %103 = load i32, i32* %5, align 4
  %104 = sub nsw i32 %103, 1
  %105 = sext i32 %104 to i64
  %106 = getelementptr inbounds [300 x [50 x i8]], [300 x [50 x i8]]* %8, i64 0, i64 %105
  %107 = getelementptr inbounds [50 x i8], [50 x i8]* %106, i64 0, i64 0
  %108 = call i64 @strlen(i8* %107) #3
  %109 = call i32 (i8*, ...) @printf(i8* getelementptr inbounds ([3 x i8], [3 x i8]* @.str, i64 0, i64 0), i64 %108)
  br label %110

110:                                              ; preds = %102, %81
  ret i32 0
}

declare dso_local i32 @gets(...) #1

; Function Attrs: nounwind readonly
declare dso_local i64 @strlen(i8*) #2

declare dso_local i32 @printf(i8*, ...) #1


!llvm.module.flags = !{!0}
!llvm.ident = !{!1}

!0 = !{i32 1, !"wchar_size", i32 4}
!1 = !{!"clang version 10.0.0-4ubuntu1 "}
